; Function Attrs: nounwind uwtable
define ptr @l_Except_instMonad___lambda__1(ptr readnone captures(none) %0, ptr readnone captures(none) %1, ptr noundef %2, ptr noundef %3) #0 {
  %5 = ptrtoint ptr %3 to i64
  %6 = and i64 %5, 1
  %.not.i32 = icmp eq i64 %6, 0
  br i1 %.not.i32, label %10, label %7

7:                                                ; preds = %4
  %8 = lshr i64 %5, 1
  %9 = trunc i64 %8 to i32
  br label %lean_obj_tag.exit

10:                                               ; preds = %4
  %11 = getelementptr i8, ptr %3, i64 4
  %.val.i = load i32, ptr %11, align 4
  %12 = lshr i32 %.val.i, 24
  br label %lean_obj_tag.exit

lean_obj_tag.exit:                                ; preds = %7, %10
  %.0.i = phi i32 [ %9, %7 ], [ %12, %10 ]
  %13 = icmp eq i32 %.0.i, 0
  br i1 %13, label %14, label %48

14:                                               ; preds = %lean_obj_tag.exit
  %15 = ptrtoint ptr %2 to i64
  %16 = and i64 %15, 1
  %.not37 = icmp eq i64 %16, 0
  br i1 %.not37, label %17, label %lean_dec.exit24

17:                                               ; preds = %14
  %18 = load i32, ptr %2, align 4, !tbaa !4
  %19 = icmp sgt i32 %18, 1
  br i1 %19, label %20, label %22, !prof !13

20:                                               ; preds = %17
  %21 = add nsw i32 %18, -1
  store i32 %21, ptr %2, align 4, !tbaa !4
  br label %lean_dec.exit24

22:                                               ; preds = %17
  %.not.i = icmp eq i32 %18, 0
  br i1 %.not.i, label %lean_dec.exit24, label %23

23:                                               ; preds = %22
  tail call void @lean_dec_ref_cold(ptr noundef nonnull %2) #5
  br label %lean_dec.exit24

lean_dec.exit24:                                  ; preds = %23, %22, %20, %14
  %.val31 = load i32, ptr %3, align 4, !tbaa !4
  %24 = icmp eq i32 %.val31, 1
  br i1 %24, label %74, label %25

25:                                               ; preds = %lean_dec.exit24
  %26 = getelementptr inbounds nuw i8, ptr %3, i64 8
  %27 = load ptr, ptr %26, align 8, !tbaa !9
  %28 = ptrtoint ptr %27 to i64
  %29 = and i64 %28, 1
  %.not38 = icmp eq i64 %29, 0
  br i1 %.not38, label %30, label %lean_inc.exit

30:                                               ; preds = %25
  %.val.i33 = load i32, ptr %27, align 4, !tbaa !4
  %31 = icmp sgt i32 %.val.i33, 0
  br i1 %31, label %32, label %34, !prof !13

32:                                               ; preds = %30
  %33 = add nuw i32 %.val.i33, 1
  store i32 %33, ptr %27, align 4, !tbaa !4
  br label %lean_inc.exit

34:                                               ; preds = %30
  %.not.i34 = icmp eq i32 %.val.i33, 0
  br i1 %.not.i34, label %lean_inc.exit, label %35

35:                                               ; preds = %34
  tail call void @lean_inc_ref_cold(ptr noundef nonnull %27) #5
  br label %lean_inc.exit

lean_inc.exit:                                    ; preds = %35, %34, %32, %25
  br i1 %.not.i32, label %36, label %lean_dec.exit23

36:                                               ; preds = %lean_inc.exit
  %37 = load i32, ptr %3, align 4, !tbaa !4
  %38 = icmp sgt i32 %37, 1
  br i1 %38, label %39, label %41, !prof !13

39:                                               ; preds = %36
  %40 = add nsw i32 %37, -1
  store i32 %40, ptr %3, align 4, !tbaa !4
  br label %lean_dec.exit23

41:                                               ; preds = %36
  %.not.i25 = icmp eq i32 %37, 0
  br i1 %.not.i25, label %lean_dec.exit23, label %42

42:                                               ; preds = %41
  tail call void @lean_dec_ref_cold(ptr noundef nonnull %3) #5
  br label %lean_dec.exit23

lean_dec.exit23:                                  ; preds = %42, %41, %39, %lean_inc.exit
  tail call void @lean_inc_heartbeat() #5
  %43 = tail call noalias ptr @mi_malloc_small(i64 noundef 16) #5
  %44 = icmp eq ptr %43, null
  br i1 %44, label %45, label %lean_alloc_ctor.exit

45:                                               ; preds = %lean_dec.exit23
  tail call void @lean_internal_panic_out_of_memory() #6
  unreachable

lean_alloc_ctor.exit:                             ; preds = %lean_dec.exit23
  %46 = getelementptr inbounds nuw i8, ptr %43, i64 4
  store i32 1, ptr %43, align 4, !tbaa !4
  store i32 65552, ptr %46, align 4
  %47 = getelementptr inbounds nuw i8, ptr %43, i64 8
  store ptr %27, ptr %47, align 8, !tbaa !9
  br label %74

48:                                               ; preds = %lean_obj_tag.exit
  %.val = load i32, ptr %3, align 4, !tbaa !4
  %49 = icmp eq i32 %.val, 1
  br i1 %49, label %50, label %62

50:                                               ; preds = %48
  %51 = getelementptr inbounds nuw i8, ptr %3, i64 8
  %52 = load ptr, ptr %51, align 8, !tbaa !9
  %53 = ptrtoint ptr %52 to i64
  %54 = and i64 %53, 1
  %.not36 = icmp eq i64 %54, 0
  br i1 %.not36, label %55, label %lean_dec.exit22

55:                                               ; preds = %50
  %56 = load i32, ptr %52, align 4, !tbaa !4
  %57 = icmp sgt i32 %56, 1
  br i1 %57, label %58, label %60, !prof !13

58:                                               ; preds = %55
  %59 = add nsw i32 %56, -1
  store i32 %59, ptr %52, align 4, !tbaa !4
  br label %lean_dec.exit22

60:                                               ; preds = %55
  %.not.i27 = icmp eq i32 %56, 0
  br i1 %.not.i27, label %lean_dec.exit22, label %61

61:                                               ; preds = %60
  tail call void @lean_dec_ref_cold(ptr noundef nonnull %52) #5
  br label %lean_dec.exit22

lean_dec.exit22:                                  ; preds = %61, %60, %58, %50
  store ptr %2, ptr %51, align 8, !tbaa !9
  br label %74

62:                                               ; preds = %48
  br i1 %.not.i32, label %63, label %lean_dec.exit

63:                                               ; preds = %62
  %64 = icmp sgt i32 %.val, 1
  br i1 %64, label %65, label %67, !prof !13

65:                                               ; preds = %63
  %66 = add nsw i32 %.val, -1
  store i32 %66, ptr %3, align 4, !tbaa !4
  br label %lean_dec.exit

67:                                               ; preds = %63
  %.not.i29 = icmp eq i32 %.val, 0
  br i1 %.not.i29, label %lean_dec.exit, label %68

68:                                               ; preds = %67
  tail call void @lean_dec_ref_cold(ptr noundef nonnull %3) #5
  br label %lean_dec.exit

lean_dec.exit:                                    ; preds = %68, %67, %65, %62
  tail call void @lean_inc_heartbeat() #5
  %69 = tail call noalias ptr @mi_malloc_small(i64 noundef 16) #5
  %70 = icmp eq ptr %69, null
  br i1 %70, label %71, label %lean_alloc_ctor.exit35

71:                                               ; preds = %lean_dec.exit
  tail call void @lean_internal_panic_out_of_memory() #6
  unreachable

lean_alloc_ctor.exit35:                           ; preds = %lean_dec.exit
  %72 = getelementptr inbounds nuw i8, ptr %69, i64 4
  store i32 1, ptr %69, align 4, !tbaa !4
  store i32 16842768, ptr %72, align 4
  %73 = getelementptr inbounds nuw i8, ptr %69, i64 8
  store ptr %2, ptr %73, align 8, !tbaa !9
  br label %74

74:                                               ; preds = %lean_dec.exit22, %lean_alloc_ctor.exit35, %lean_alloc_ctor.exit, %lean_dec.exit24
  %.1 = phi ptr [ %43, %lean_alloc_ctor.exit ], [ %3, %lean_dec.exit24 ], [ %3, %lean_dec.exit22 ], [ %69, %lean_alloc_ctor.exit35 ]
  ret ptr %.1
}